target datalayout = "e-m:e-p270:32:32-p271:32:32-p272:64:64-i64:64-i128:128-f80:128-n8:16:32:64-S128"
target triple = "x86_64-unknown-linux-gnu"

%struct.aiMesh = type { i32, i32, i32, ptr, ptr, ptr, ptr, [8 x ptr], [8 x ptr], [8 x i32], ptr, i32, ptr, i32, %struct.aiString, i32, ptr, i32, %struct.aiAABB, ptr }
%struct.aiString = type { i32, [1024 x i8] }
%struct.aiAABB = type { %class.aiVector3t, %class.aiVector3t }
%class.aiVector3t = type { float, float, float }
%struct.aiFace = type { i32, ptr }
%"struct.Assimp::IRRImporter::SkyboxVertex" = type { %class.aiVector3t, %class.aiVector3t, %class.aiVector3t }

; Function Attrs: noreturn nounwind uwtable
define linkonce_odr hidden void @__clang_call_terminate(ptr noundef %0) #13 comdat {
  %2 = call ptr @__cxa_begin_catch(ptr %0) #5
  call void @_ZSt9terminatev() #17
  unreachable
}

; Function Attrs: mustprogress nounwind uwtable
define linkonce_odr hidden void @_ZN6aiAABBC2Ev(ptr noundef nonnull align 4 dereferenceable(24) %this) unnamed_addr #0 comdat align 2 {
entry:
  %this.addr = alloca ptr, align 8
  store ptr %this, ptr %this.addr, align 8
  %this1 = load ptr, ptr %this.addr, align 8
  %mMin = getelementptr inbounds %struct.aiAABB, ptr %this1, i32 0, i32 0
  call void @_ZN10aiVector3tIfEC2Ev(ptr noundef nonnull align 4 dereferenceable(12) %mMin) #5
  %mMax = getelementptr inbounds %struct.aiAABB, ptr %this1, i32 0, i32 1
  call void @_ZN10aiVector3tIfEC2Ev(ptr noundef nonnull align 4 dereferenceable(12) %mMax) #5
  ret void
}

; Function Attrs: mustprogress nounwind uwtable
define linkonce_odr hidden void @_ZN8aiStringC2Ev(ptr noundef nonnull align 4 dereferenceable(1028) %this) unnamed_addr #0 comdat align 2 {
entry:
  %this.addr = alloca ptr, align 8
  store ptr %this, ptr %this.addr, align 8
  %this1 = load ptr, ptr %this.addr, align 8
  %length = getelementptr inbounds %struct.aiString, ptr %this1, i32 0, i32 0
  store i32 0, ptr %length, align 4
  %data = getelementptr inbounds %struct.aiString, ptr %this1, i32 0, i32 1
  %arrayidx = getelementptr inbounds [1024 x i8], ptr %data, i64 0, i64 0
  store i8 0, ptr %arrayidx, align 4
  ret void
}

; Function Attrs: mustprogress nounwind uwtable
define linkonce_odr hidden void @_ZN10aiVector3tIfEC2Ev(ptr noundef nonnull align 4 dereferenceable(12) %this) unnamed_addr #0 comdat align 2 {
entry:
  %this.addr = alloca ptr, align 8
  store ptr %this, ptr %this.addr, align 8
  %this1 = load ptr, ptr %this.addr, align 8
  %x = getelementptr inbounds %class.aiVector3t, ptr %this1, i32 0, i32 0
  store float 0.000000e+00, ptr %x, align 4
  %y = getelementptr inbounds %class.aiVector3t, ptr %this1, i32 0, i32 1
  store float 0.000000e+00, ptr %y, align 4
  %z = getelementptr inbounds %class.aiVector3t, ptr %this1, i32 0, i32 2
  store float 0.000000e+00, ptr %z, align 4
  ret void
}

; Function Attrs: mustprogress nounwind uwtable
define linkonce_odr hidden void @_ZN6aiFaceC2Ev(ptr noundef nonnull align 8 dereferenceable(16) %this) unnamed_addr #0 comdat align 2 {
entry:
  %this.addr = alloca ptr, align 8
  store ptr %this, ptr %this.addr, align 8
  %this1 = load ptr, ptr %this.addr, align 8
  %mNumIndices = getelementptr inbounds %struct.aiFace, ptr %this1, i32 0, i32 0
  store i32 0, ptr %mNumIndices, align 8
  %mIndices = getelementptr inbounds %struct.aiFace, ptr %this1, i32 0, i32 1
  store ptr null, ptr %mIndices, align 8
  ret void
}

; Function Attrs: mustprogress nounwind uwtable
define linkonce_odr hidden void @_ZN6aiMeshC2Ev(ptr noundef nonnull align 8 dereferenceable(1320) %this) unnamed_addr #0 comdat align 2 personality ptr @__gxx_personality_v0 {
entry:
  %this.addr = alloca ptr, align 8
  store ptr %this, ptr %this.addr, align 8
  %this1 = load ptr, ptr %this.addr, align 8
  %mPrimitiveTypes = getelementptr inbounds %struct.aiMesh, ptr %this1, i32 0, i32 0
  store i32 0, ptr %mPrimitiveTypes, align 8
  %mNumVertices = getelementptr inbounds %struct.aiMesh, ptr %this1, i32 0, i32 1
  store i32 0, ptr %mNumVertices, align 4
  %mNumFaces = getelementptr inbounds %struct.aiMesh, ptr %this1, i32 0, i32 2
  store i32 0, ptr %mNumFaces, align 8
  %mVertices = getelementptr inbounds %struct.aiMesh, ptr %this1, i32 0, i32 3
  store ptr null, ptr %mVertices, align 8
  %mNormals = getelementptr inbounds %struct.aiMesh, ptr %this1, i32 0, i32 4
  store ptr null, ptr %mNormals, align 8
  %mTangents = getelementptr inbounds %struct.aiMesh, ptr %this1, i32 0, i32 5
  store ptr null, ptr %mTangents, align 8
  %mBitangents = getelementptr inbounds %struct.aiMesh, ptr %this1, i32 0, i32 6
  store ptr null, ptr %mBitangents, align 8
  %mColors = getelementptr inbounds %struct.aiMesh, ptr %this1, i32 0, i32 7
  call void @llvm.memset.p0.i64(ptr align 8 %mColors, i8 0, i64 64, i1 false)
  %mTextureCoords = getelementptr inbounds %struct.aiMesh, ptr %this1, i32 0, i32 8
  call void @llvm.memset.p0.i64(ptr align 8 %mTextureCoords, i8 0, i64 64, i1 false)
  %mNumUVComponents = getelementptr inbounds %struct.aiMesh, ptr %this1, i32 0, i32 9
  call void @llvm.memset.p0.i64(ptr align 8 %mNumUVComponents, i8 0, i64 32, i1 false)
  %mFaces = getelementptr inbounds %struct.aiMesh, ptr %this1, i32 0, i32 10
  store ptr null, ptr %mFaces, align 8
  %mNumBones = getelementptr inbounds %struct.aiMesh, ptr %this1, i32 0, i32 11
  store i32 0, ptr %mNumBones, align 8
  %mBones = getelementptr inbounds %struct.aiMesh, ptr %this1, i32 0, i32 12
  store ptr null, ptr %mBones, align 8
  %mMaterialIndex = getelementptr inbounds %struct.aiMesh, ptr %this1, i32 0, i32 13
  store i32 0, ptr %mMaterialIndex, align 8
  %mName = getelementptr inbounds %struct.aiMesh, ptr %this1, i32 0, i32 14
  call void @_ZN8aiStringC2Ev(ptr noundef nonnull align 4 dereferenceable(1028) %mName) #5
  %mNumAnimMeshes = getelementptr inbounds %struct.aiMesh, ptr %this1, i32 0, i32 15
  store i32 0, ptr %mNumAnimMeshes, align 8
  %mAnimMeshes = getelementptr inbounds %struct.aiMesh, ptr %this1, i32 0, i32 16
  store ptr null, ptr %mAnimMeshes, align 8
  %mMethod = getelementptr inbounds %struct.aiMesh, ptr %this1, i32 0, i32 17
  store i32 0, ptr %mMethod, align 8
  %mAABB = getelementptr inbounds %struct.aiMesh, ptr %this1, i32 0, i32 18
  invoke void @_ZN6aiAABBC2Ev(ptr noundef nonnull align 4 dereferenceable(24) %mAABB)
          to label %invoke.cont unwind label %terminate.lpad

invoke.cont:                                      ; preds = %entry
  %mTextureCoordsNames = getelementptr inbounds %struct.aiMesh, ptr %this1, i32 0, i32 19
  store ptr null, ptr %mTextureCoordsNames, align 8
  ret void

terminate.lpad:                                   ; preds = %entry
  %0 = landingpad { ptr, i32 }
          catch ptr null
  %1 = extractvalue { ptr, i32 } %0, 0
  call void @__clang_call_terminate(ptr %1) #17
  unreachable
}

; Function Attrs: mustprogress uwtable
define hidden noundef ptr @_ZN6Assimp11IRRImporter19BuildSingleQuadMeshERKNS0_12SkyboxVertexES3_S3_S3_(ptr noundef nonnull align 8 dereferenceable(188) %this, ptr noundef nonnull align 4 dereferenceable(36) %v1, ptr noundef nonnull align 4 dereferenceable(36) %v2, ptr noundef nonnull align 4 dereferenceable(36) %v3, ptr noundef nonnull align 4 dereferenceable(36) %v4) #2 align 2 {
entry:
  %this.addr = alloca ptr, align 8
  %v1.addr = alloca ptr, align 8
  %v2.addr = alloca ptr, align 8
  %v3.addr = alloca ptr, align 8
  %v4.addr = alloca ptr, align 8
  %out = alloca ptr, align 8
  %face = alloca ptr, align 8
  %i = alloca i32, align 4
  %vec = alloca ptr, align 8
  store ptr %this, ptr %this.addr, align 8
  store ptr %v1, ptr %v1.addr, align 8
  store ptr %v2, ptr %v2.addr, align 8
  store ptr %v3, ptr %v3.addr, align 8
  store ptr %v4, ptr %v4.addr, align 8
  %call = call noalias noundef nonnull ptr @_Znwm(i64 noundef 1320) #19
  call void @_ZN6aiMeshC2Ev(ptr noundef nonnull align 8 dereferenceable(1320) %call) #5
  store ptr %call, ptr %out, align 8
  %0 = load ptr, ptr %out, align 8
  %mPrimitiveTypes = getelementptr inbounds %struct.aiMesh, ptr %0, i32 0, i32 0
  store i32 8, ptr %mPrimitiveTypes, align 8
  %1 = load ptr, ptr %out, align 8
  %mNumFaces = getelementptr inbounds %struct.aiMesh, ptr %1, i32 0, i32 2
  store i32 1, ptr %mNumFaces, align 8
  %call2 = call noalias noundef nonnull ptr @_Znam(i64 noundef 24) #19
  store i64 1, ptr %call2, align 16
  %2 = getelementptr inbounds i8, ptr %call2, i64 8
  %arrayctor.end = getelementptr inbounds %struct.aiFace, ptr %2, i64 1
  br label %arrayctor.loop

arrayctor.loop:                                   ; preds = %arrayctor.loop, %entry
  %arrayctor.cur = phi ptr [ %2, %entry ], [ %arrayctor.next, %arrayctor.loop ]
  call void @_ZN6aiFaceC2Ev(ptr noundef nonnull align 8 dereferenceable(16) %arrayctor.cur) #5
  %arrayctor.next = getelementptr inbounds %struct.aiFace, ptr %arrayctor.cur, i64 1
  %arrayctor.done = icmp eq ptr %arrayctor.next, %arrayctor.end
  br i1 %arrayctor.done, label %arrayctor.cont, label %arrayctor.loop

arrayctor.cont:                                   ; preds = %arrayctor.loop
  %3 = load ptr, ptr %out, align 8
  %mFaces = getelementptr inbounds %struct.aiMesh, ptr %3, i32 0, i32 10
  store ptr %2, ptr %mFaces, align 8
  %4 = load ptr, ptr %out, align 8
  %mFaces3 = getelementptr inbounds %struct.aiMesh, ptr %4, i32 0, i32 10
  %5 = load ptr, ptr %mFaces3, align 8
  %arrayidx = getelementptr inbounds %struct.aiFace, ptr %5, i64 0
  store ptr %arrayidx, ptr %face, align 8
  %6 = load ptr, ptr %face, align 8
  %mNumIndices = getelementptr inbounds %struct.aiFace, ptr %6, i32 0, i32 0
  store i32 4, ptr %mNumIndices, align 8
  %call4 = call noalias noundef nonnull ptr @_Znam(i64 noundef 16) #19
  %7 = load ptr, ptr %face, align 8
  %mIndices = getelementptr inbounds %struct.aiFace, ptr %7, i32 0, i32 1
  store ptr %call4, ptr %mIndices, align 8
  store i32 0, ptr %i, align 4
  br label %for.cond

for.cond:                                         ; preds = %for.inc, %arrayctor.cont
  %8 = load i32, ptr %i, align 4
  %cmp = icmp ult i32 %8, 4
  br i1 %cmp, label %for.body, label %for.end

for.body:                                         ; preds = %for.cond
  %9 = load i32, ptr %i, align 4
  %10 = load ptr, ptr %face, align 8
  %mIndices5 = getelementptr inbounds %struct.aiFace, ptr %10, i32 0, i32 1
  %11 = load ptr, ptr %mIndices5, align 8
  %12 = load i32, ptr %i, align 4
  %idxprom = zext i32 %12 to i64
  %arrayidx6 = getelementptr inbounds i32, ptr %11, i64 %idxprom
  store i32 %9, ptr %arrayidx6, align 4
  br label %for.inc

for.inc:                                          ; preds = %for.body
  %13 = load i32, ptr %i, align 4
  %inc = add i32 %13, 1
  store i32 %inc, ptr %i, align 4
  br label %for.cond, !llvm.loop !4

for.end:                                          ; preds = %for.cond
  %14 = load ptr, ptr %out, align 8
  %mNumVertices = getelementptr inbounds %struct.aiMesh, ptr %14, i32 0, i32 1
  store i32 4, ptr %mNumVertices, align 4
  %call7 = call noalias noundef nonnull ptr @_Znam(i64 noundef 48) #19
  %arrayctor.end8 = getelementptr inbounds %class.aiVector3t, ptr %call7, i64 4
  br label %arrayctor.loop9

arrayctor.loop9:                                  ; preds = %arrayctor.loop9, %for.end
  %arrayctor.cur10 = phi ptr [ %call7, %for.end ], [ %arrayctor.next11, %arrayctor.loop9 ]
  call void @_ZN10aiVector3tIfEC2Ev(ptr noundef nonnull align 4 dereferenceable(12) %arrayctor.cur10) #5
  %arrayctor.next11 = getelementptr inbounds %class.aiVector3t, ptr %arrayctor.cur10, i64 1
  %arrayctor.done12 = icmp eq ptr %arrayctor.next11, %arrayctor.end8
  br i1 %arrayctor.done12, label %arrayctor.cont13, label %arrayctor.loop9

arrayctor.cont13:                                 ; preds = %arrayctor.loop9
  %15 = load ptr, ptr %out, align 8
  %mVertices = getelementptr inbounds %struct.aiMesh, ptr %15, i32 0, i32 3
  store ptr %call7, ptr %mVertices, align 8
  store ptr %call7, ptr %vec, align 8
  %16 = load ptr, ptr %v1.addr, align 8
  %position = getelementptr inbounds %"struct.Assimp::IRRImporter::SkyboxVertex", ptr %16, i32 0, i32 0
  %17 = load ptr, ptr %vec, align 8
  %incdec.ptr = getelementptr inbounds %class.aiVector3t, ptr %17, i32 1
  store ptr %incdec.ptr, ptr %vec, align 8
  call void @llvm.memcpy.p0.p0.i64(ptr align 4 %17, ptr align 4 %position, i64 12, i1 false)
  %18 = load ptr, ptr %v2.addr, align 8
  %position14 = getelementptr inbounds %"struct.Assimp::IRRImporter::SkyboxVertex", ptr %18, i32 0, i32 0
  %19 = load ptr, ptr %vec, align 8
  %incdec.ptr15 = getelementptr inbounds %class.aiVector3t, ptr %19, i32 1
  store ptr %incdec.ptr15, ptr %vec, align 8
  call void @llvm.memcpy.p0.p0.i64(ptr align 4 %19, ptr align 4 %position14, i64 12, i1 false)
  %20 = load ptr, ptr %v3.addr, align 8
  %position16 = getelementptr inbounds %"struct.Assimp::IRRImporter::SkyboxVertex", ptr %20, i32 0, i32 0
  %21 = load ptr, ptr %vec, align 8
  %incdec.ptr17 = getelementptr inbounds %class.aiVector3t, ptr %21, i32 1
  store ptr %incdec.ptr17, ptr %vec, align 8
  call void @llvm.memcpy.p0.p0.i64(ptr align 4 %21, ptr align 4 %position16, i64 12, i1 false)
  %22 = load ptr, ptr %v4.addr, align 8
  %position18 = getelementptr inbounds %"struct.Assimp::IRRImporter::SkyboxVertex", ptr %22, i32 0, i32 0
  %23 = load ptr, ptr %vec, align 8
  call void @llvm.memcpy.p0.p0.i64(ptr align 4 %23, ptr align 4 %position18, i64 12, i1 false)
  %call19 = call noalias noundef nonnull ptr @_Znam(i64 noundef 48) #19
  %arrayctor.end20 = getelementptr inbounds %class.aiVector3t, ptr %call19, i64 4
  br label %arrayctor.loop21

arrayctor.loop21:                                 ; preds = %arrayctor.loop21, %arrayctor.cont13
  %arrayctor.cur22 = phi ptr [ %call19, %arrayctor.cont13 ], [ %arrayctor.next23, %arrayctor.loop21 ]
  call void @_ZN10aiVector3tIfEC2Ev(ptr noundef nonnull align 4 dereferenceable(12) %arrayctor.cur22) #5
  %arrayctor.next23 = getelementptr inbounds %class.aiVector3t, ptr %arrayctor.cur22, i64 1
  %arrayctor.done24 = icmp eq ptr %arrayctor.next23, %arrayctor.end20
  br i1 %arrayctor.done24, label %arrayctor.cont25, label %arrayctor.loop21

arrayctor.cont25:                                 ; preds = %arrayctor.loop21
  %24 = load ptr, ptr %out, align 8
  %mNormals = getelementptr inbounds %struct.aiMesh, ptr %24, i32 0, i32 4
  store ptr %call19, ptr %mNormals, align 8
  store ptr %call19, ptr %vec, align 8
  %25 = load ptr, ptr %v1.addr, align 8
  %normal = getelementptr inbounds %"struct.Assimp::IRRImporter::SkyboxVertex", ptr %25, i32 0, i32 1
  %26 = load ptr, ptr %vec, align 8
  %incdec.ptr26 = getelementptr inbounds %class.aiVector3t, ptr %26, i32 1
  store ptr %incdec.ptr26, ptr %vec, align 8
  call void @llvm.memcpy.p0.p0.i64(ptr align 4 %26, ptr align 4 %normal, i64 12, i1 false)
  %27 = load ptr, ptr %v2.addr, align 8
  %normal27 = getelementptr inbounds %"struct.Assimp::IRRImporter::SkyboxVertex", ptr %27, i32 0, i32 1
  %28 = load ptr, ptr %vec, align 8
  %incdec.ptr28 = getelementptr inbounds %class.aiVector3t, ptr %28, i32 1
  store ptr %incdec.ptr28, ptr %vec, align 8
  call void @llvm.memcpy.p0.p0.i64(ptr align 4 %28, ptr align 4 %normal27, i64 12, i1 false)
  %29 = load ptr, ptr %v3.addr, align 8
  %normal29 = getelementptr inbounds %"struct.Assimp::IRRImporter::SkyboxVertex", ptr %29, i32 0, i32 1
  %30 = load ptr, ptr %vec, align 8
  %incdec.ptr30 = getelementptr inbounds %class.aiVector3t, ptr %30, i32 1
  store ptr %incdec.ptr30, ptr %vec, align 8
  call void @llvm.memcpy.p0.p0.i64(ptr align 4 %30, ptr align 4 %normal29, i64 12, i1 false)
  %31 = load ptr, ptr %v4.addr, align 8
  %normal31 = getelementptr inbounds %"struct.Assimp::IRRImporter::SkyboxVertex", ptr %31, i32 0, i32 1
  %32 = load ptr, ptr %vec, align 8
  call void @llvm.memcpy.p0.p0.i64(ptr align 4 %32, ptr align 4 %normal31, i64 12, i1 false)
  %call32 = call noalias noundef nonnull ptr @_Znam(i64 noundef 48) #19
  %arrayctor.end33 = getelementptr inbounds %class.aiVector3t, ptr %call32, i64 4
  br label %arrayctor.loop34

arrayctor.loop34:                                 ; preds = %arrayctor.loop34, %arrayctor.cont25
  %arrayctor.cur35 = phi ptr [ %call32, %arrayctor.cont25 ], [ %arrayctor.next36, %arrayctor.loop34 ]
  call void @_ZN10aiVector3tIfEC2Ev(ptr noundef nonnull align 4 dereferenceable(12) %arrayctor.cur35) #5
  %arrayctor.next36 = getelementptr inbounds %class.aiVector3t, ptr %arrayctor.cur35, i64 1
  %arrayctor.done37 = icmp eq ptr %arrayctor.next36, %arrayctor.end33
  br i1 %arrayctor.done37, label %arrayctor.cont38, label %arrayctor.loop34

arrayctor.cont38:                                 ; preds = %arrayctor.loop34
  %33 = load ptr, ptr %out, align 8
  %mTextureCoords = getelementptr inbounds %struct.aiMesh, ptr %33, i32 0, i32 8
  %arrayidx39 = getelementptr inbounds [8 x ptr], ptr %mTextureCoords, i64 0, i64 0
  store ptr %call32, ptr %arrayidx39, align 8
  store ptr %call32, ptr %vec, align 8
  %34 = load ptr, ptr %v1.addr, align 8
  %uv = getelementptr inbounds %"struct.Assimp::IRRImporter::SkyboxVertex", ptr %34, i32 0, i32 2
  %35 = load ptr, ptr %vec, align 8
  %incdec.ptr40 = getelementptr inbounds %class.aiVector3t, ptr %35, i32 1
  store ptr %incdec.ptr40, ptr %vec, align 8
  call void @llvm.memcpy.p0.p0.i64(ptr align 4 %35, ptr align 4 %uv, i64 12, i1 false)
  %36 = load ptr, ptr %v2.addr, align 8
  %uv41 = getelementptr inbounds %"struct.Assimp::IRRImporter::SkyboxVertex", ptr %36, i32 0, i32 2
  %37 = load ptr, ptr %vec, align 8
  %incdec.ptr42 = getelementptr inbounds %class.aiVector3t, ptr %37, i32 1
  store ptr %incdec.ptr42, ptr %vec, align 8
  call void @llvm.memcpy.p0.p0.i64(ptr align 4 %37, ptr align 4 %uv41, i64 12, i1 false)
  %38 = load ptr, ptr %v3.addr, align 8
  %uv43 = getelementptr inbounds %"struct.Assimp::IRRImporter::SkyboxVertex", ptr %38, i32 0, i32 2
  %39 = load ptr, ptr %vec, align 8
  %incdec.ptr44 = getelementptr inbounds %class.aiVector3t, ptr %39, i32 1
  store ptr %incdec.ptr44, ptr %vec, align 8
  call void @llvm.memcpy.p0.p0.i64(ptr align 4 %39, ptr align 4 %uv43, i64 12, i1 false)
  %40 = load ptr, ptr %v4.addr, align 8
  %uv45 = getelementptr inbounds %"struct.Assimp::IRRImporter::SkyboxVertex", ptr %40, i32 0, i32 2
  %41 = load ptr, ptr %vec, align 8
  call void @llvm.memcpy.p0.p0.i64(ptr align 4 %41, ptr align 4 %uv45, i64 12, i1 false)
  %42 = load ptr, ptr %out, align 8
  ret ptr %42
}