; Function Attrs: mustprogress uwtable
define hidden noalias noundef nonnull ptr @_ZN6Assimp11IRRImporter19BuildSingleQuadMeshERKNS0_12SkyboxVertexES3_S3_S3_(ptr nocapture nonnull readnone align 8 %this, ptr nocapture noundef nonnull readonly align 4 dereferenceable(36) %v1, ptr nocapture noundef nonnull readonly align 4 dereferenceable(36) %v2, ptr nocapture noundef nonnull readonly align 4 dereferenceable(36) %v3, ptr nocapture noundef nonnull readonly align 4 dereferenceable(36) %v4) local_unnamed_addr #4 align 2 personality ptr @__gxx_personality_v0 {
entry:
  %call = tail call noalias noundef nonnull dereferenceable(1320) ptr @_Znwm(i64 noundef 1320) #28
  %mNumVertices.i = getelementptr inbounds i8, ptr %call, i64 4
  store i32 0, ptr %mNumVertices.i, align 4
  %mNumFaces.i = getelementptr inbounds i8, ptr %call, i64 8
  %mBones.i = getelementptr inbounds i8, ptr %call, i64 224
  %mNumAnimMeshes.i = getelementptr inbounds i8, ptr %call, i64 1264
  store i32 0, ptr %mNumAnimMeshes.i, align 8
  %mAnimMeshes.i = getelementptr inbounds i8, ptr %call, i64 1272
  %mTextureCoordsNames.i = getelementptr inbounds i8, ptr %call, i64 1312
  store ptr null, ptr %mTextureCoordsNames.i, align 8
  %0 = getelementptr inbounds i8, ptr %call, i64 32
  tail call void @llvm.memset.p0.i64(ptr noundef nonnull align 8 dereferenceable(204) %0, i8 0, i64 188, i1 false)
  tail call void @llvm.memset.p0.i64(ptr noundef nonnull align 8 dereferenceable(17) %mBones.i, i8 0, i64 17, i1 false)
  tail call void @llvm.memset.p0.i64(ptr noundef nonnull align 8 dereferenceable(36) %mAnimMeshes.i, i8 0, i64 36, i1 false)
  store i32 8, ptr %call, align 8
  store i32 1, ptr %mNumFaces.i, align 8
  %call2 = tail call noalias noundef nonnull dereferenceable(24) ptr @_Znam(i64 noundef 24) #28
  store i64 1, ptr %call2, align 16
  %arrayctor.cur.ptr = getelementptr inbounds i8, ptr %call2, i64 8
  %mIndices.i = getelementptr inbounds i8, ptr %call2, i64 16
  store ptr null, ptr %mIndices.i, align 8
  %mFaces = getelementptr inbounds i8, ptr %call, i64 208
  store ptr %arrayctor.cur.ptr, ptr %mFaces, align 8
  store i32 4, ptr %arrayctor.cur.ptr, align 8
  %call4 = tail call noalias noundef nonnull dereferenceable(16) ptr @_Znam(i64 noundef 16) #28
  %mIndices = getelementptr inbounds i8, ptr %call2, i64 16
  store ptr %call4, ptr %mIndices, align 8
  br label %for.body

for.body:                                         ; preds = %entry, %for.body
  %indvars.iv = phi i64 [ 0, %entry ], [ %indvars.iv.next, %for.body ]
  %1 = load ptr, ptr %mIndices, align 8
  %arrayidx6 = getelementptr inbounds i32, ptr %1, i64 %indvars.iv
  %2 = trunc i64 %indvars.iv to i32
  store i32 %2, ptr %arrayidx6, align 4
  %indvars.iv.next = add nuw nsw i64 %indvars.iv, 1
  %exitcond.not = icmp eq i64 %indvars.iv.next, 4
  br i1 %exitcond.not, label %for.end, label %for.body, !llvm.loop !4

for.end:                                          ; preds = %for.body
  %mVertices.i = getelementptr inbounds i8, ptr %call, i64 16
  store i32 4, ptr %mNumVertices.i, align 4
  %call7 = tail call noalias noundef nonnull dereferenceable(48) ptr @_Znam(i64 noundef 48) #28
  store ptr %call7, ptr %mVertices.i, align 8
  %incdec.ptr = getelementptr inbounds i8, ptr %call7, i64 12
  tail call void @llvm.memcpy.p0.p0.i64(ptr noundef nonnull align 4 dereferenceable(12) %call7, ptr noundef nonnull align 4 dereferenceable(12) %v1, i64 12, i1 false)
  %incdec.ptr15 = getelementptr inbounds i8, ptr %call7, i64 24
  tail call void @llvm.memcpy.p0.p0.i64(ptr noundef nonnull align 4 dereferenceable(12) %incdec.ptr, ptr noundef nonnull align 4 dereferenceable(12) %v2, i64 12, i1 false)
  %incdec.ptr17 = getelementptr inbounds i8, ptr %call7, i64 36
  tail call void @llvm.memcpy.p0.p0.i64(ptr noundef nonnull align 4 dereferenceable(12) %incdec.ptr15, ptr noundef nonnull align 4 dereferenceable(12) %v3, i64 12, i1 false)
  tail call void @llvm.memcpy.p0.p0.i64(ptr noundef nonnull align 4 dereferenceable(12) %incdec.ptr17, ptr noundef nonnull align 4 dereferenceable(12) %v4, i64 12, i1 false)
  %call19 = tail call noalias noundef nonnull dereferenceable(48) ptr @_Znam(i64 noundef 48) #28
  %mNormals = getelementptr inbounds i8, ptr %call, i64 24
  store ptr %call19, ptr %mNormals, align 8
  %normal = getelementptr inbounds i8, ptr %v1, i64 12
  %incdec.ptr26 = getelementptr inbounds i8, ptr %call19, i64 12
  tail call void @llvm.memcpy.p0.p0.i64(ptr noundef nonnull align 4 dereferenceable(12) %call19, ptr noundef nonnull align 4 dereferenceable(12) %normal, i64 12, i1 false)
  %normal27 = getelementptr inbounds i8, ptr %v2, i64 12
  %incdec.ptr28 = getelementptr inbounds i8, ptr %call19, i64 24
  tail call void @llvm.memcpy.p0.p0.i64(ptr noundef nonnull align 4 dereferenceable(12) %incdec.ptr26, ptr noundef nonnull align 4 dereferenceable(12) %normal27, i64 12, i1 false)
  %normal29 = getelementptr inbounds i8, ptr %v3, i64 12
  %incdec.ptr30 = getelementptr inbounds i8, ptr %call19, i64 36
  tail call void @llvm.memcpy.p0.p0.i64(ptr noundef nonnull align 4 dereferenceable(12) %incdec.ptr28, ptr noundef nonnull align 4 dereferenceable(12) %normal29, i64 12, i1 false)
  %normal31 = getelementptr inbounds i8, ptr %v4, i64 12
  tail call void @llvm.memcpy.p0.p0.i64(ptr noundef nonnull align 4 dereferenceable(12) %incdec.ptr30, ptr noundef nonnull align 4 dereferenceable(12) %normal31, i64 12, i1 false)
  %call32 = tail call noalias noundef nonnull dereferenceable(48) ptr @_Znam(i64 noundef 48) #28
  %mTextureCoords = getelementptr inbounds i8, ptr %call, i64 112
  store ptr %call32, ptr %mTextureCoords, align 8
  %uv = getelementptr inbounds i8, ptr %v1, i64 24
  %incdec.ptr40 = getelementptr inbounds i8, ptr %call32, i64 12
  tail call void @llvm.memcpy.p0.p0.i64(ptr noundef nonnull align 4 dereferenceable(12) %call32, ptr noundef nonnull align 4 dereferenceable(12) %uv, i64 12, i1 false)
  %uv41 = getelementptr inbounds i8, ptr %v2, i64 24
  %incdec.ptr42 = getelementptr inbounds i8, ptr %call32, i64 24
  tail call void @llvm.memcpy.p0.p0.i64(ptr noundef nonnull align 4 dereferenceable(12) %incdec.ptr40, ptr noundef nonnull align 4 dereferenceable(12) %uv41, i64 12, i1 false)
  %uv43 = getelementptr inbounds i8, ptr %v3, i64 24
  %incdec.ptr44 = getelementptr inbounds i8, ptr %call32, i64 36
  tail call void @llvm.memcpy.p0.p0.i64(ptr noundef nonnull align 4 dereferenceable(12) %incdec.ptr42, ptr noundef nonnull align 4 dereferenceable(12) %uv43, i64 12, i1 false)
  %uv45 = getelementptr inbounds i8, ptr %v4, i64 24
  tail call void @llvm.memcpy.p0.p0.i64(ptr noundef nonnull align 4 dereferenceable(12) %incdec.ptr44, ptr noundef nonnull align 4 dereferenceable(12) %uv45, i64 12, i1 false)
  ret ptr %call
}